target datalayout = "e-m:e-p270:32:32-p271:32:32-p272:64:64-i64:64-i128:128-f80:128-n8:16:32:64-S128"
target triple = "x86_64-pc-linux-gnu"

%struct.UConverter = type { ptr, ptr, ptr, ptr, ptr, ptr, ptr, i32, i8, i8, i8, i8, i8, [7 x i8], i32, i32, i32, i32, i8, i8, i8, i8, i8, i8, i8, i8, [8 x i8], [32 x i8], [2 x i16], [2 x i16], [32 x i16], i32, [19 x i16], [31 x i8], i8, i8, i8, i32 }
%struct.UConverterDataHZ = type { ptr, i32, i32, i8, i8, i8, i8 }
%struct.USetAdder = type { ptr, ptr, ptr, ptr, ptr, ptr }

; Function Attrs: mustprogress uwtable
define internal void @_ZL17_HZ_GetUnicodeSetPK10UConverterPK9USetAdder20UConverterUnicodeSetP10UErrorCode(ptr noundef %0, ptr noundef %1, i32 noundef %2, ptr noundef %3) #0 {
  %5 = alloca ptr, align 8
  %6 = alloca ptr, align 8
  %7 = alloca i32, align 4
  %8 = alloca ptr, align 8
  store ptr %0, ptr %5, align 8, !tbaa !3
  store ptr %1, ptr %6, align 8, !tbaa !75
  store i32 %2, ptr %7, align 4, !tbaa !77
  store ptr %3, ptr %8, align 8, !tbaa !8
  %9 = load ptr, ptr %6, align 8, !tbaa !75
  %10 = getelementptr inbounds nuw %struct.USetAdder, ptr %9, i32 0, i32 2
  %11 = load ptr, ptr %10, align 8, !tbaa !79
  %12 = load ptr, ptr %6, align 8, !tbaa !75
  %13 = getelementptr inbounds nuw %struct.USetAdder, ptr %12, i32 0, i32 0
  %14 = load ptr, ptr %13, align 8, !tbaa !82
  call void %11(ptr noundef %14, i32 noundef 0, i32 noundef 127)
  %15 = load ptr, ptr %5, align 8, !tbaa !3
  %16 = getelementptr inbounds nuw %struct.UConverter, ptr %15, i32 0, i32 2
  %17 = load ptr, ptr %16, align 8, !tbaa !23
  %18 = getelementptr inbounds nuw %struct.UConverterDataHZ, ptr %17, i32 0, i32 0
  %19 = load ptr, ptr %18, align 8, !tbaa !24
  %20 = getelementptr inbounds nuw %struct.UConverter, ptr %19, i32 0, i32 6
  %21 = load ptr, ptr %20, align 8, !tbaa !54
  %22 = load ptr, ptr %6, align 8, !tbaa !75
  %23 = load i32, ptr %7, align 4, !tbaa !77
  %24 = load ptr, ptr %8, align 8, !tbaa !8
  call void @ucnv_MBCSGetFilteredUnicodeSetForUnicode_77(ptr noundef %21, ptr noundef %22, i32 noundef %23, i32 noundef 5, ptr noundef %24)
  ret void
}