; Function Attrs: mustprogress uwtable
define internal void @_ZL17_HZ_GetUnicodeSetPK10UConverterPK9USetAdder20UConverterUnicodeSetP10UErrorCode(ptr noundef readonly captures(none) %0, ptr noundef %1, i32 noundef %2, ptr noundef %3) #0 {
  %5 = getelementptr inbounds nuw i8, ptr %1, i64 16
  %6 = load ptr, ptr %5, align 8, !tbaa !64
  %7 = load ptr, ptr %1, align 8, !tbaa !67
  tail call void %6(ptr noundef %7, i32 noundef 0, i32 noundef 127)
  %8 = getelementptr inbounds nuw i8, ptr %0, i64 16
  %9 = load ptr, ptr %8, align 8, !tbaa !13
  %10 = load ptr, ptr %9, align 8, !tbaa !17
  %11 = getelementptr inbounds nuw i8, ptr %10, i64 48
  %12 = load ptr, ptr %11, align 8, !tbaa !45
  tail call void @ucnv_MBCSGetFilteredUnicodeSetForUnicode_77(ptr noundef %12, ptr noundef nonnull %1, i32 noundef %2, i32 noundef 5, ptr noundef %3)
  ret void
}